; Function Attrs: mustprogress uwtable
define noundef zeroext i1 @_ZN2cv5utils2fs6existsERKNSt7__cxx1112basic_stringIcSt11char_traitsIcESaIcEEE(ptr noundef nonnull readonly align 8 captures(none) dereferenceable(32) %0) local_unnamed_addr #3 personality ptr @__gxx_personality_v0 {
  %2 = alloca %"class.cv::utils::trace::details::Region", align 8
  %3 = alloca %struct.stat, align 8
  call void @llvm.lifetime.start.p0(i64 16, ptr nonnull %2) #23
  call void @_ZN2cv5utils5trace7details6RegionC1ERKNS3_21LocationStaticStorageE(ptr noundef nonnull align 8 dereferenceable(12) %2, ptr noundef nonnull align 8 dereferenceable(32) @_ZZN2cv5utils2fs6existsERKNSt7__cxx1112basic_stringIcSt11char_traitsIcESaIcEEEE25__cv_trace_location_fn123)
  call void @llvm.lifetime.start.p0(i64 144, ptr nonnull %3) #23
  %4 = load ptr, ptr %0, align 8, !tbaa !12
  %5 = call i32 @stat(ptr noundef %4, ptr noundef nonnull %3) #23
  call void @llvm.lifetime.end.p0(i64 144, ptr nonnull %3) #23
  %6 = getelementptr inbounds nuw i8, ptr %2, i64 8
  %7 = load i32, ptr %6, align 8, !tbaa !36
  %.not.i = icmp eq i32 %7, 0
  br i1 %.not.i, label %_ZN2cv5utils5trace7details6RegionD2Ev.exit, label %8

8:                                                ; preds = %1
  invoke void @_ZN2cv5utils5trace7details6Region7destroyEv(ptr noundef nonnull align 8 dereferenceable(12) %2)
          to label %_ZN2cv5utils5trace7details6RegionD2Ev.exit unwind label %9

9:                                                ; preds = %8
  %10 = landingpad { ptr, i32 }
          catch ptr null
  %11 = extractvalue { ptr, i32 } %10, 0
  call void @__clang_call_terminate(ptr %11) #26
  unreachable

_ZN2cv5utils5trace7details6RegionD2Ev.exit:       ; preds = %1, %8
  %12 = icmp eq i32 %5, 0
  call void @llvm.lifetime.end.p0(i64 16, ptr nonnull %2) #23
  ret i1 %12
}